target datalayout = "e-m:e-p270:32:32-p271:32:32-p272:64:64-i64:64-i128:128-f80:128-n8:16:32:64-S128"
target triple = "x86_64-pc-linux-gnu"

%struct._zend_compiler_globals = type { %struct._zend_stack, ptr, ptr, i32, ptr, ptr, ptr, ptr, i8, i8, i8, i8, i8, %struct._zend_llist, ptr, i8, i8, i8, i8, ptr, i32, i32, %struct._zend_oparray_context, %struct._zend_file_context, ptr, %struct._zend_array, ptr, i64, i8, i8, i8, ptr, ptr, %struct._zend_stack, ptr, i32, ptr, ptr, i64, i64, ptr, ptr, ptr, ptr, i32, %struct._zend_stack }
%struct._zend_llist = type { ptr, ptr, i64, i64, ptr, i8, ptr }
%struct._zend_oparray_context = type { i32, i32, i32, i32, i32, i32, i32, ptr, ptr, i8 }
%struct._zend_file_context = type { %struct._zend_declarables, ptr, i8, i8, ptr, ptr, ptr, %struct._zend_array }
%struct._zend_declarables = type { i64 }
%struct._zend_array = type { %struct._zend_refcounted_h, %union.anon.0, i32, %union.anon.1, i32, i32, i32, i32, i64, ptr }
%struct._zend_refcounted_h = type { i32, %union.anon }
%union.anon = type { i32 }
%union.anon.0 = type { i32 }
%union.anon.1 = type { ptr }
%struct._zend_stack = type { i32, i32, i32, ptr }
%struct._zend_php_scanner_globals = type { ptr, ptr, i32, ptr, ptr, ptr, ptr, ptr, i32, %struct._zend_stack, %struct._zend_ptr_stack, %struct._zend_stack, i8, i32, i8, ptr, i64, ptr, i64, ptr, ptr, ptr, i32, ptr, ptr }
%struct._zend_ptr_stack = type { i32, i32, ptr, ptr, i8 }
%struct._zend_nest_location = type { i8, i32 }

@compiler_globals = external global %struct._zend_compiler_globals, align 8
@language_scanner_globals = global %struct._zend_php_scanner_globals zeroinitializer, align 8
@zend_ce_parse_error = external global ptr, align 8
@.str.23 = private unnamed_addr constant [14 x i8] c"Unclosed '%c'\00", align 1
@.str.24 = private unnamed_addr constant [12 x i8] c" on line %d\00", align 1
@.str.25 = private unnamed_addr constant [21 x i8] c" does not match '%c'\00", align 1
@.str.29 = private unnamed_addr constant [15 x i8] c"Unmatched '%c'\00", align 1

; Function Attrs: nounwind uwtable
define internal void @report_bad_nesting(i8 noundef signext %0, i32 noundef %1, i8 noundef signext %2) #0 {
  %4 = alloca i8, align 1
  %5 = alloca i32, align 4
  %6 = alloca i8, align 1
  %7 = alloca [256 x i8], align 16
  %8 = alloca i64, align 8
  store i8 %0, ptr %4, align 1
  store i32 %1, ptr %5, align 4
  store i8 %2, ptr %6, align 1
  store i64 0, ptr %8, align 8
  %9 = getelementptr inbounds [256 x i8], ptr %7, i64 0, i64 0
  %10 = load i8, ptr %4, align 1
  %11 = sext i8 %10 to i32
  %12 = call i32 (ptr, i64, ptr, ...) @snprintf(ptr noundef %9, i64 noundef 256, ptr noundef @.str.23, i32 noundef %11) #12
  %13 = sext i32 %12 to i64
  store i64 %13, ptr %8, align 8
  %14 = load i32, ptr %5, align 4
  %15 = load i32, ptr getelementptr inbounds (%struct._zend_compiler_globals, ptr @compiler_globals, i32 0, i32 3), align 8
  %16 = icmp ne i32 %14, %15
  br i1 %16, label %17, label %28

17:                                               ; preds = %3
  %18 = getelementptr inbounds [256 x i8], ptr %7, i64 0, i64 0
  %19 = load i64, ptr %8, align 8
  %20 = getelementptr inbounds i8, ptr %18, i64 %19
  %21 = load i64, ptr %8, align 8
  %22 = sub i64 256, %21
  %23 = load i32, ptr %5, align 4
  %24 = call i32 (ptr, i64, ptr, ...) @snprintf(ptr noundef %20, i64 noundef %22, ptr noundef @.str.24, i32 noundef %23) #12
  %25 = sext i32 %24 to i64
  %26 = load i64, ptr %8, align 8
  %27 = add i64 %26, %25
  store i64 %27, ptr %8, align 8
  br label %28

28:                                               ; preds = %17, %3
  %29 = load i8, ptr %6, align 1
  %30 = icmp ne i8 %29, 0
  br i1 %30, label %31, label %43

31:                                               ; preds = %28
  %32 = getelementptr inbounds [256 x i8], ptr %7, i64 0, i64 0
  %33 = load i64, ptr %8, align 8
  %34 = getelementptr inbounds i8, ptr %32, i64 %33
  %35 = load i64, ptr %8, align 8
  %36 = sub i64 256, %35
  %37 = load i8, ptr %6, align 1
  %38 = sext i8 %37 to i32
  %39 = call i32 (ptr, i64, ptr, ...) @snprintf(ptr noundef %34, i64 noundef %36, ptr noundef @.str.25, i32 noundef %38) #12
  %40 = sext i32 %39 to i64
  %41 = load i64, ptr %8, align 8
  %42 = add i64 %41, %40
  store i64 %42, ptr %8, align 8
  br label %43

43:                                               ; preds = %31, %28
  %44 = load ptr, ptr @zend_ce_parse_error, align 8
  %45 = getelementptr inbounds [256 x i8], ptr %7, i64 0, i64 0
  %46 = call ptr @zend_throw_exception(ptr noundef %44, ptr noundef %45, i64 noundef 0)
  ret void
}

; Function Attrs: nounwind uwtable
define internal i32 @exit_nesting(i8 noundef signext %0) #0 {
  %2 = alloca i32, align 4
  %3 = alloca i8, align 1
  %4 = alloca ptr, align 8
  %5 = alloca i8, align 1
  store i8 %0, ptr %3, align 1
  %6 = call zeroext i1 @zend_stack_is_empty(ptr noundef getelementptr inbounds (%struct._zend_php_scanner_globals, ptr @language_scanner_globals, i32 0, i32 11))
  br i1 %6, label %7, label %12

7:                                                ; preds = %1
  %8 = load ptr, ptr @zend_ce_parse_error, align 8
  %9 = load i8, ptr %3, align 1
  %10 = sext i8 %9 to i32
  %11 = call ptr (ptr, i64, ptr, ...) @zend_throw_exception_ex(ptr noundef %8, i64 noundef 0, ptr noundef @.str.29, i32 noundef %10)
  store i32 -1, ptr %2, align 4
  br label %47

12:                                               ; preds = %1
  %13 = call ptr @zend_stack_top(ptr noundef getelementptr inbounds (%struct._zend_php_scanner_globals, ptr @language_scanner_globals, i32 0, i32 11))
  store ptr %13, ptr %4, align 8
  %14 = load ptr, ptr %4, align 8
  %15 = getelementptr inbounds %struct._zend_nest_location, ptr %14, i32 0, i32 0
  %16 = load i8, ptr %15, align 4
  store i8 %16, ptr %5, align 1
  %17 = load i8, ptr %5, align 1
  %18 = sext i8 %17 to i32
  %19 = icmp eq i32 %18, 123
  br i1 %19, label %20, label %24

20:                                               ; preds = %12
  %21 = load i8, ptr %3, align 1
  %22 = sext i8 %21 to i32
  %23 = icmp ne i32 %22, 125
  br i1 %23, label %40, label %24

24:                                               ; preds = %20, %12
  %25 = load i8, ptr %5, align 1
  %26 = sext i8 %25 to i32
  %27 = icmp eq i32 %26, 91
  br i1 %27, label %28, label %32

28:                                               ; preds = %24
  %29 = load i8, ptr %3, align 1
  %30 = sext i8 %29 to i32
  %31 = icmp ne i32 %30, 93
  br i1 %31, label %40, label %32

32:                                               ; preds = %28, %24
  %33 = load i8, ptr %5, align 1
  %34 = sext i8 %33 to i32
  %35 = icmp eq i32 %34, 40
  br i1 %35, label %36, label %46

36:                                               ; preds = %32
  %37 = load i8, ptr %3, align 1
  %38 = sext i8 %37 to i32
  %39 = icmp ne i32 %38, 41
  br i1 %39, label %40, label %46

40:                                               ; preds = %36, %28, %20
  %41 = load i8, ptr %5, align 1
  %42 = load ptr, ptr %4, align 8
  %43 = getelementptr inbounds %struct._zend_nest_location, ptr %42, i32 0, i32 1
  %44 = load i32, ptr %43, align 4
  %45 = load i8, ptr %3, align 1
  call void @report_bad_nesting(i8 noundef signext %41, i32 noundef %44, i8 noundef signext %45)
  store i32 -1, ptr %2, align 4
  br label %47

46:                                               ; preds = %36, %32
  call void @zend_stack_del_top(ptr noundef getelementptr inbounds (%struct._zend_php_scanner_globals, ptr @language_scanner_globals, i32 0, i32 11))
  store i32 0, ptr %2, align 4
  br label %47

47:                                               ; preds = %46, %40, %7
  %48 = load i32, ptr %2, align 4
  ret i32 %48
}