; Function Attrs: nounwind uwtable
define internal fastcc noundef i32 @exit_nesting(i8 noundef signext %0) unnamed_addr #0 {
  %2 = alloca [256 x i8], align 16
  %3 = tail call zeroext i1 @zend_stack_is_empty(ptr noundef nonnull getelementptr inbounds (%struct._zend_php_scanner_globals, ptr @language_scanner_globals, i64 0, i32 11)) #16
  br i1 %3, label %4, label %8

4:                                                ; preds = %1
  %5 = load ptr, ptr @zend_ce_parse_error, align 8
  %6 = sext i8 %0 to i32
  %7 = tail call ptr (ptr, i64, ptr, ...) @zend_throw_exception_ex(ptr noundef %5, i64 noundef 0, ptr noundef nonnull @.str.29, i32 noundef %6) #16
  br label %41

8:                                                ; preds = %1
  %9 = tail call ptr @zend_stack_top(ptr noundef nonnull getelementptr inbounds (%struct._zend_php_scanner_globals, ptr @language_scanner_globals, i64 0, i32 11)) #16
  %10 = load i8, ptr %9, align 4
  %11 = icmp eq i8 %10, 123
  %12 = icmp ne i8 %0, 125
  %or.cond = and i1 %12, %11
  br i1 %or.cond, label %19, label %13

13:                                               ; preds = %8
  %14 = icmp eq i8 %10, 91
  %15 = icmp ne i8 %0, 93
  %or.cond5 = and i1 %15, %14
  br i1 %or.cond5, label %19, label %16

16:                                               ; preds = %13
  %17 = icmp eq i8 %10, 40
  %18 = icmp ne i8 %0, 41
  %or.cond8 = and i1 %18, %17
  br i1 %or.cond8, label %19, label %40

19:                                               ; preds = %16, %13, %8
  %20 = getelementptr inbounds i8, ptr %9, i64 4
  %21 = load i32, ptr %20, align 4
  call void @llvm.lifetime.start.p0(i64 256, ptr nonnull %2)
  %22 = zext nneg i8 %10 to i32
  %23 = call i32 (ptr, i64, ptr, ...) @snprintf(ptr noundef nonnull dereferenceable(1) %2, i64 noundef 256, ptr noundef nonnull @.str.23, i32 noundef %22) #16
  %24 = sext i32 %23 to i64
  %25 = load i32, ptr getelementptr inbounds (%struct._zend_compiler_globals, ptr @compiler_globals, i64 0, i32 3), align 8
  %.not.i = icmp eq i32 %25, %21
  br i1 %.not.i, label %32, label %26

26:                                               ; preds = %19
  %27 = getelementptr inbounds i8, ptr %2, i64 %24
  %28 = sub nsw i64 256, %24
  %29 = call i32 (ptr, i64, ptr, ...) @snprintf(ptr noundef nonnull %27, i64 noundef %28, ptr noundef nonnull @.str.24, i32 noundef %21) #16
  %30 = sext i32 %29 to i64
  %31 = add nsw i64 %30, %24
  br label %32

32:                                               ; preds = %26, %19
  %.0.i = phi i64 [ %31, %26 ], [ %24, %19 ]
  %.not13.i = icmp eq i8 %0, 0
  br i1 %.not13.i, label %report_bad_nesting.exit, label %33

33:                                               ; preds = %32
  %34 = getelementptr inbounds i8, ptr %2, i64 %.0.i
  %35 = sub nsw i64 256, %.0.i
  %36 = sext i8 %0 to i32
  %37 = call i32 (ptr, i64, ptr, ...) @snprintf(ptr noundef nonnull %34, i64 noundef %35, ptr noundef nonnull @.str.25, i32 noundef %36) #16
  br label %report_bad_nesting.exit

report_bad_nesting.exit:                          ; preds = %32, %33
  %38 = load ptr, ptr @zend_ce_parse_error, align 8
  %39 = call ptr @zend_throw_exception(ptr noundef %38, ptr noundef nonnull %2, i64 noundef 0) #16
  call void @llvm.lifetime.end.p0(i64 256, ptr nonnull %2)
  br label %41

40:                                               ; preds = %16
  tail call void @zend_stack_del_top(ptr noundef nonnull getelementptr inbounds (%struct._zend_php_scanner_globals, ptr @language_scanner_globals, i64 0, i32 11)) #16
  br label %41

41:                                               ; preds = %40, %report_bad_nesting.exit, %4
  %.0 = phi i32 [ -1, %4 ], [ -1, %report_bad_nesting.exit ], [ 0, %40 ]
  ret i32 %.0
}